; Function Attrs: mustprogress nofree norecurse nosync nounwind memory(read, argmem: readwrite, inaccessiblemem: none) uwtable
define void @_ZN32pxrInternal_v0_24__pxrReserved__10GfMatrix4fC2ERKSt6vectorIS1_IdSaIdEESaIS3_EE(ptr noundef nonnull writeonly align 4 captures(none) dereferenceable(64) %0, ptr noundef nonnull readonly align 8 captures(none) dereferenceable(24) %1) unnamed_addr #3 align 2 {
  %3 = alloca [4 x [4 x float]], align 16
  call void @llvm.memset.p0.i64(ptr noundef nonnull align 16 dereferenceable(64) %3, i8 0, i64 64, i1 false)
  store float 1.000000e+00, ptr %3, align 16
  %4 = getelementptr inbounds nuw i8, ptr %3, i64 20
  store float 1.000000e+00, ptr %4, align 4
  %5 = getelementptr inbounds nuw i8, ptr %3, i64 40
  store float 1.000000e+00, ptr %5, align 8
  %6 = getelementptr inbounds nuw i8, ptr %3, i64 60
  store float 1.000000e+00, ptr %6, align 4
  %7 = getelementptr inbounds nuw i8, ptr %1, i64 8
  %8 = load ptr, ptr %7, align 8
  %9 = load ptr, ptr %1, align 8
  %10 = ptrtoint ptr %8 to i64
  %11 = ptrtoint ptr %9 to i64
  %12 = sub i64 %10, %11
  %13 = sdiv exact i64 %12, 24
  br label %14

14:                                               ; preds = %2, %.critedge2
  %.01618 = phi i64 [ 0, %2 ], [ %30, %.critedge2 ]
  %exitcond20.not = icmp eq i64 %.01618, %13
  br i1 %exitcond20.not, label %.critedge, label %.preheader

.preheader:                                       ; preds = %14
  %15 = getelementptr inbounds nuw %"class.std::vector.1", ptr %9, i64 %.01618
  %16 = getelementptr inbounds nuw i8, ptr %15, i64 8
  %17 = load ptr, ptr %16, align 8
  %18 = load ptr, ptr %15, align 8
  %19 = ptrtoint ptr %17 to i64
  %20 = ptrtoint ptr %18 to i64
  %21 = sub i64 %19, %20
  %22 = ashr exact i64 %21, 3
  br label %23

23:                                               ; preds = %.preheader, %24
  %.017 = phi i64 [ 0, %.preheader ], [ %29, %24 ]
  %exitcond.not = icmp eq i64 %.017, %22
  br i1 %exitcond.not, label %.critedge2, label %24

24:                                               ; preds = %23
  %25 = getelementptr inbounds nuw double, ptr %18, i64 %.017
  %26 = load double, ptr %25, align 8
  %27 = fptrunc double %26 to float
  %28 = getelementptr inbounds nuw [4 x [4 x float]], ptr %3, i64 0, i64 %.01618, i64 %.017
  store float %27, ptr %28, align 4
  %29 = add nuw nsw i64 %.017, 1
  %exitcond19.not = icmp eq i64 %29, 4
  br i1 %exitcond19.not, label %.critedge2, label %23, !llvm.loop !4

.critedge2:                                       ; preds = %23, %24
  %30 = add nuw nsw i64 %.01618, 1
  %exitcond21.not = icmp eq i64 %30, 4
  br i1 %exitcond21.not, label %.critedge, label %14, !llvm.loop !6

.critedge:                                        ; preds = %.critedge2, %14
  %31 = load float, ptr %3, align 16
  store float %31, ptr %0, align 4
  %32 = getelementptr inbounds nuw i8, ptr %3, i64 4
  %33 = load float, ptr %32, align 4
  %34 = getelementptr inbounds nuw i8, ptr %0, i64 4
  store float %33, ptr %34, align 4
  %35 = getelementptr inbounds nuw i8, ptr %3, i64 8
  %36 = load float, ptr %35, align 8
  %37 = getelementptr inbounds nuw i8, ptr %0, i64 8
  store float %36, ptr %37, align 4
  %38 = getelementptr inbounds nuw i8, ptr %3, i64 12
  %39 = load float, ptr %38, align 4
  %40 = getelementptr inbounds nuw i8, ptr %0, i64 12
  store float %39, ptr %40, align 4
  %41 = getelementptr inbounds nuw i8, ptr %3, i64 16
  %42 = load float, ptr %41, align 16
  %43 = getelementptr inbounds nuw i8, ptr %0, i64 16
  store float %42, ptr %43, align 4
  %44 = load float, ptr %4, align 4
  %45 = getelementptr inbounds nuw i8, ptr %0, i64 20
  store float %44, ptr %45, align 4
  %46 = getelementptr inbounds nuw i8, ptr %3, i64 24
  %47 = load float, ptr %46, align 8
  %48 = getelementptr inbounds nuw i8, ptr %0, i64 24
  store float %47, ptr %48, align 4
  %49 = getelementptr inbounds nuw i8, ptr %3, i64 28
  %50 = load float, ptr %49, align 4
  %51 = getelementptr inbounds nuw i8, ptr %0, i64 28
  store float %50, ptr %51, align 4
  %52 = getelementptr inbounds nuw i8, ptr %3, i64 32
  %53 = load float, ptr %52, align 16
  %54 = getelementptr inbounds nuw i8, ptr %0, i64 32
  store float %53, ptr %54, align 4
  %55 = getelementptr inbounds nuw i8, ptr %3, i64 36
  %56 = load float, ptr %55, align 4
  %57 = getelementptr inbounds nuw i8, ptr %0, i64 36
  store float %56, ptr %57, align 4
  %58 = load float, ptr %5, align 8
  %59 = getelementptr inbounds nuw i8, ptr %0, i64 40
  store float %58, ptr %59, align 4
  %60 = getelementptr inbounds nuw i8, ptr %3, i64 44
  %61 = load float, ptr %60, align 4
  %62 = getelementptr inbounds nuw i8, ptr %0, i64 44
  store float %61, ptr %62, align 4
  %63 = getelementptr inbounds nuw i8, ptr %3, i64 48
  %64 = load float, ptr %63, align 16
  %65 = getelementptr inbounds nuw i8, ptr %0, i64 48
  store float %64, ptr %65, align 4
  %66 = getelementptr inbounds nuw i8, ptr %3, i64 52
  %67 = load float, ptr %66, align 4
  %68 = getelementptr inbounds nuw i8, ptr %0, i64 52
  store float %67, ptr %68, align 4
  %69 = getelementptr inbounds nuw i8, ptr %3, i64 56
  %70 = load float, ptr %69, align 8
  %71 = getelementptr inbounds nuw i8, ptr %0, i64 56
  store float %70, ptr %71, align 4
  %72 = load float, ptr %6, align 4
  %73 = getelementptr inbounds nuw i8, ptr %0, i64 60
  store float %72, ptr %73, align 4
  ret void
}